target datalayout = "e-m:e-p270:32:32-p271:32:32-p272:64:64-i64:64-i128:128-f80:128-n8:16:32:64-S128"
target triple = "x86_64-pc-linux-gnu"

%"class.cv::Size_" = type { i32, i32 }
%"class.testing::internal::ParamGenerator" = type { %"class.testing::internal::linked_ptr" }
%"class.testing::internal::linked_ptr" = type { ptr, %"class.testing::internal::linked_ptr_internal" }
%"class.testing::internal::linked_ptr_internal" = type { ptr }
%"class.testing::internal::CartesianProductHolder2" = type { %"class.testing::internal::ValueArray3", %"class.testing::internal::ValueArray3.33" }
%"class.testing::internal::ValueArray3" = type { ptr, ptr, ptr }
%"class.testing::internal::ValueArray3.33" = type { %"class.cv::Size_", %"class.cv::Size_", %"class.cv::Size_" }

@_ZN4perfL5szVGAE = internal global %"class.cv::Size_" zeroinitializer, align 4
@_ZN4perfL6sz720pE = internal global %"class.cv::Size_" zeroinitializer, align 4
@_ZN4perfL7sz1080pE = internal global %"class.cv::Size_" zeroinitializer, align 4
@.str.33 = private unnamed_addr constant [17 x i8] c"PRESET_ULTRAFAST\00", align 1
@.str.34 = private unnamed_addr constant [12 x i8] c"PRESET_FAST\00", align 1
@.str.35 = private unnamed_addr constant [14 x i8] c"PRESET_MEDIUM\00", align 1

; Function Attrs: mustprogress nounwind uwtable
define linkonce_odr hidden void @_ZN7testing8internal11ValueArray3IN2cv5Size_IiEES4_S4_EC2ERKS5_(ptr noundef nonnull align 4 dereferenceable(24) %0, ptr noundef nonnull align 4 dereferenceable(24) %1) unnamed_addr #7 comdat align 2 {
  %3 = alloca ptr, align 8
  %4 = alloca ptr, align 8
  store ptr %0, ptr %3, align 8, !tbaa !284
  store ptr %1, ptr %4, align 8, !tbaa !284
  %5 = load ptr, ptr %3, align 8
  %6 = getelementptr inbounds nuw %"class.testing::internal::ValueArray3.33", ptr %5, i32 0, i32 0
  %7 = load ptr, ptr %4, align 8, !tbaa !284
  %8 = getelementptr inbounds nuw %"class.testing::internal::ValueArray3.33", ptr %7, i32 0, i32 0
  call void @llvm.memcpy.p0.p0.i64(ptr align 4 %6, ptr align 4 %8, i64 8, i1 false), !tbaa.struct !38
  %9 = getelementptr inbounds nuw %"class.testing::internal::ValueArray3.33", ptr %5, i32 0, i32 1
  %10 = load ptr, ptr %4, align 8, !tbaa !284
  %11 = getelementptr inbounds nuw %"class.testing::internal::ValueArray3.33", ptr %10, i32 0, i32 1
  call void @llvm.memcpy.p0.p0.i64(ptr align 4 %9, ptr align 4 %11, i64 8, i1 false), !tbaa.struct !38
  %12 = getelementptr inbounds nuw %"class.testing::internal::ValueArray3.33", ptr %5, i32 0, i32 2
  %13 = load ptr, ptr %4, align 8, !tbaa !284
  %14 = getelementptr inbounds nuw %"class.testing::internal::ValueArray3.33", ptr %13, i32 0, i32 2
  call void @llvm.memcpy.p0.p0.i64(ptr align 4 %12, ptr align 4 %14, i64 8, i1 false), !tbaa.struct !38
  ret void
}

; Function Attrs: mustprogress nounwind uwtable
define linkonce_odr hidden void @_ZN7testing8internal11ValueArray3IPKcS3_S3_EC2ERKS4_(ptr noundef nonnull align 8 dereferenceable(24) %0, ptr noundef nonnull align 8 dereferenceable(24) %1) unnamed_addr #7 comdat align 2 {
  %3 = alloca ptr, align 8
  %4 = alloca ptr, align 8
  store ptr %0, ptr %3, align 8, !tbaa !282
  store ptr %1, ptr %4, align 8, !tbaa !282
  %5 = load ptr, ptr %3, align 8
  %6 = getelementptr inbounds nuw %"class.testing::internal::ValueArray3", ptr %5, i32 0, i32 0
  %7 = load ptr, ptr %4, align 8, !tbaa !282
  %8 = getelementptr inbounds nuw %"class.testing::internal::ValueArray3", ptr %7, i32 0, i32 0
  %9 = load ptr, ptr %8, align 8, !tbaa !288
  store ptr %9, ptr %6, align 8, !tbaa !288
  %10 = getelementptr inbounds nuw %"class.testing::internal::ValueArray3", ptr %5, i32 0, i32 1
  %11 = load ptr, ptr %4, align 8, !tbaa !282
  %12 = getelementptr inbounds nuw %"class.testing::internal::ValueArray3", ptr %11, i32 0, i32 1
  %13 = load ptr, ptr %12, align 8, !tbaa !290
  store ptr %13, ptr %10, align 8, !tbaa !290
  %14 = getelementptr inbounds nuw %"class.testing::internal::ValueArray3", ptr %5, i32 0, i32 2
  %15 = load ptr, ptr %4, align 8, !tbaa !282
  %16 = getelementptr inbounds nuw %"class.testing::internal::ValueArray3", ptr %15, i32 0, i32 2
  %17 = load ptr, ptr %16, align 8, !tbaa !291
  store ptr %17, ptr %14, align 8, !tbaa !291
  ret void
}

; Function Attrs: mustprogress uwtable
define linkonce_odr hidden void @_ZN7testing8internal23CartesianProductHolder2INS0_11ValueArray3IPKcS4_S4_EENS2_IN2cv5Size_IiEES8_S8_EEEC2ERKS5_RKS9_(ptr noundef nonnull align 8 dereferenceable(48) %0, ptr noundef nonnull align 8 dereferenceable(24) %1, ptr noundef nonnull align 4 dereferenceable(24) %2) unnamed_addr #6 comdat align 2 {
  %4 = alloca ptr, align 8
  %5 = alloca ptr, align 8
  %6 = alloca ptr, align 8
  store ptr %0, ptr %4, align 8, !tbaa !286
  store ptr %1, ptr %5, align 8, !tbaa !282
  store ptr %2, ptr %6, align 8, !tbaa !284
  %7 = load ptr, ptr %4, align 8
  %8 = getelementptr inbounds nuw %"class.testing::internal::CartesianProductHolder2", ptr %7, i32 0, i32 0
  %9 = load ptr, ptr %5, align 8, !tbaa !282
  call void @_ZN7testing8internal11ValueArray3IPKcS3_S3_EC2ERKS4_(ptr noundef nonnull align 8 dereferenceable(24) %8, ptr noundef nonnull align 8 dereferenceable(24) %9)
  %10 = getelementptr inbounds nuw %"class.testing::internal::CartesianProductHolder2", ptr %7, i32 0, i32 1
  %11 = load ptr, ptr %6, align 8, !tbaa !284
  call void @_ZN7testing8internal11ValueArray3IN2cv5Size_IiEES4_S4_EC2ERKS5_(ptr noundef nonnull align 4 dereferenceable(24) %10, ptr noundef nonnull align 4 dereferenceable(24) %11)
  ret void
}

; Function Attrs: mustprogress nounwind uwtable
define linkonce_odr hidden void @_ZN7testing8internal11ValueArray3IN2cv5Size_IiEES4_S4_EC2ES4_S4_S4_(ptr noundef nonnull align 4 dereferenceable(24) %0, i64 %1, i64 %2, i64 %3) unnamed_addr #7 comdat align 2 {
  %5 = alloca %"class.cv::Size_", align 4
  %6 = alloca %"class.cv::Size_", align 4
  %7 = alloca %"class.cv::Size_", align 4
  %8 = alloca ptr, align 8
  store i64 %1, ptr %5, align 4
  store i64 %2, ptr %6, align 4
  store i64 %3, ptr %7, align 4
  store ptr %0, ptr %8, align 8, !tbaa !284
  %9 = load ptr, ptr %8, align 8
  %10 = getelementptr inbounds nuw %"class.testing::internal::ValueArray3.33", ptr %9, i32 0, i32 0
  call void @llvm.memcpy.p0.p0.i64(ptr align 4 %10, ptr align 4 %5, i64 8, i1 false), !tbaa.struct !38
  %11 = getelementptr inbounds nuw %"class.testing::internal::ValueArray3.33", ptr %9, i32 0, i32 1
  call void @llvm.memcpy.p0.p0.i64(ptr align 4 %11, ptr align 4 %6, i64 8, i1 false), !tbaa.struct !38
  %12 = getelementptr inbounds nuw %"class.testing::internal::ValueArray3.33", ptr %9, i32 0, i32 2
  call void @llvm.memcpy.p0.p0.i64(ptr align 4 %12, ptr align 4 %7, i64 8, i1 false), !tbaa.struct !38
  ret void
}

; Function Attrs: mustprogress nounwind uwtable
define linkonce_odr hidden void @_ZN7testing8internal11ValueArray3IPKcS3_S3_EC2ES3_S3_S3_(ptr noundef nonnull align 8 dereferenceable(24) %0, ptr noundef %1, ptr noundef %2, ptr noundef %3) unnamed_addr #7 comdat align 2 {
  %5 = alloca ptr, align 8
  %6 = alloca ptr, align 8
  %7 = alloca ptr, align 8
  %8 = alloca ptr, align 8
  store ptr %0, ptr %5, align 8, !tbaa !282
  store ptr %1, ptr %6, align 8, !tbaa !16
  store ptr %2, ptr %7, align 8, !tbaa !16
  store ptr %3, ptr %8, align 8, !tbaa !16
  %9 = load ptr, ptr %5, align 8
  %10 = getelementptr inbounds nuw %"class.testing::internal::ValueArray3", ptr %9, i32 0, i32 0
  %11 = load ptr, ptr %6, align 8, !tbaa !16
  store ptr %11, ptr %10, align 8, !tbaa !288
  %12 = getelementptr inbounds nuw %"class.testing::internal::ValueArray3", ptr %9, i32 0, i32 1
  %13 = load ptr, ptr %7, align 8, !tbaa !16
  store ptr %13, ptr %12, align 8, !tbaa !290
  %14 = getelementptr inbounds nuw %"class.testing::internal::ValueArray3", ptr %9, i32 0, i32 2
  %15 = load ptr, ptr %8, align 8, !tbaa !16
  store ptr %15, ptr %14, align 8, !tbaa !291
  ret void
}

; Function Attrs: mustprogress uwtable
define linkonce_odr hidden void @_ZN7testing7CombineINS_8internal11ValueArray3IPKcS4_S4_EENS2_IN2cv5Size_IiEES8_S8_EEEENS1_23CartesianProductHolder2IT_T0_EERKSB_RKSC_(ptr dead_on_unwind noalias writable sret(%"class.testing::internal::CartesianProductHolder2") align 8 %0, ptr noundef nonnull align 8 dereferenceable(24) %1, ptr noundef nonnull align 4 dereferenceable(24) %2) #6 comdat {
  %4 = alloca ptr, align 8
  %5 = alloca ptr, align 8
  %6 = alloca ptr, align 8
  store ptr %0, ptr %4, align 8
  store ptr %1, ptr %5, align 8, !tbaa !282
  store ptr %2, ptr %6, align 8, !tbaa !284
  %7 = load ptr, ptr %5, align 8, !tbaa !282
  %8 = load ptr, ptr %6, align 8, !tbaa !284
  call void @_ZN7testing8internal23CartesianProductHolder2INS0_11ValueArray3IPKcS4_S4_EENS2_IN2cv5Size_IiEES8_S8_EEEC2ERKS5_RKS9_(ptr noundef nonnull align 8 dereferenceable(48) %0, ptr noundef nonnull align 8 dereferenceable(24) %7, ptr noundef nonnull align 4 dereferenceable(24) %8)
  ret void
}

; Function Attrs: mustprogress uwtable
define linkonce_odr hidden void @_ZN7testing6ValuesIN2cv5Size_IiEES3_S3_EENS_8internal11ValueArray3IT_T0_T1_EES6_S7_S8_(ptr dead_on_unwind noalias writable sret(%"class.testing::internal::ValueArray3.33") align 4 %0, i64 %1, i64 %2, i64 %3) #6 comdat {
  %5 = alloca ptr, align 8
  %6 = alloca %"class.cv::Size_", align 4
  %7 = alloca %"class.cv::Size_", align 4
  %8 = alloca %"class.cv::Size_", align 4
  %9 = alloca %"class.cv::Size_", align 4
  %10 = alloca %"class.cv::Size_", align 4
  %11 = alloca %"class.cv::Size_", align 4
  store ptr %0, ptr %5, align 8
  store i64 %1, ptr %6, align 4
  store i64 %2, ptr %7, align 4
  store i64 %3, ptr %8, align 4
  call void @llvm.memcpy.p0.p0.i64(ptr align 4 %9, ptr align 4 %6, i64 8, i1 false), !tbaa.struct !38
  call void @llvm.memcpy.p0.p0.i64(ptr align 4 %10, ptr align 4 %7, i64 8, i1 false), !tbaa.struct !38
  call void @llvm.memcpy.p0.p0.i64(ptr align 4 %11, ptr align 4 %8, i64 8, i1 false), !tbaa.struct !38
  %12 = load i64, ptr %9, align 4
  %13 = load i64, ptr %10, align 4
  %14 = load i64, ptr %11, align 4
  call void @_ZN7testing8internal11ValueArray3IN2cv5Size_IiEES4_S4_EC2ES4_S4_S4_(ptr noundef nonnull align 4 dereferenceable(24) %0, i64 %12, i64 %13, i64 %14)
  ret void
}

; Function Attrs: mustprogress uwtable
define linkonce_odr hidden void @_ZN7testing6ValuesIPKcS2_S2_EENS_8internal11ValueArray3IT_T0_T1_EES5_S6_S7_(ptr dead_on_unwind noalias writable sret(%"class.testing::internal::ValueArray3") align 8 %0, ptr noundef %1, ptr noundef %2, ptr noundef %3) #6 comdat {
  %5 = alloca ptr, align 8
  %6 = alloca ptr, align 8
  %7 = alloca ptr, align 8
  %8 = alloca ptr, align 8
  store ptr %0, ptr %5, align 8
  store ptr %1, ptr %6, align 8, !tbaa !16
  store ptr %2, ptr %7, align 8, !tbaa !16
  store ptr %3, ptr %8, align 8, !tbaa !16
  %9 = load ptr, ptr %6, align 8, !tbaa !16
  %10 = load ptr, ptr %7, align 8, !tbaa !16
  %11 = load ptr, ptr %8, align 8, !tbaa !16
  call void @_ZN7testing8internal11ValueArray3IPKcS3_S3_EC2ES3_S3_S3_(ptr noundef nonnull align 8 dereferenceable(24) %0, ptr noundef %9, ptr noundef %10, ptr noundef %11)
  ret void
}

; Function Attrs: mustprogress uwtable
define internal void @_ZN11opencv_test12_GLOBAL__N_146gtest_DenseOpticalFlow_DIS_perf_EvalGenerator_B5cxx11Ev(ptr dead_on_unwind noalias writable sret(%"class.testing::internal::ParamGenerator") align 8 %0) #6 {
  %2 = alloca ptr, align 8
  %3 = alloca %"class.testing::internal::CartesianProductHolder2", align 8
  %4 = alloca %"class.testing::internal::ValueArray3", align 8
  %5 = alloca %"class.testing::internal::ValueArray3.33", align 4
  %6 = alloca %"class.cv::Size_", align 4
  %7 = alloca %"class.cv::Size_", align 4
  %8 = alloca %"class.cv::Size_", align 4
  store ptr %0, ptr %2, align 8
  call void @llvm.lifetime.start.p0(i64 48, ptr %3) #3
  call void @llvm.lifetime.start.p0(i64 24, ptr %4) #3
  call void @_ZN7testing6ValuesIPKcS2_S2_EENS_8internal11ValueArray3IT_T0_T1_EES5_S6_S7_(ptr dead_on_unwind writable sret(%"class.testing::internal::ValueArray3") align 8 %4, ptr noundef @.str.33, ptr noundef @.str.34, ptr noundef @.str.35)
  call void @llvm.lifetime.start.p0(i64 24, ptr %5) #3
  call void @llvm.memcpy.p0.p0.i64(ptr align 4 %6, ptr align 4 @_ZN4perfL5szVGAE, i64 8, i1 false), !tbaa.struct !38
  call void @llvm.memcpy.p0.p0.i64(ptr align 4 %7, ptr align 4 @_ZN4perfL6sz720pE, i64 8, i1 false), !tbaa.struct !38
  call void @llvm.memcpy.p0.p0.i64(ptr align 4 %8, ptr align 4 @_ZN4perfL7sz1080pE, i64 8, i1 false), !tbaa.struct !38
  %9 = load i64, ptr %6, align 4
  %10 = load i64, ptr %7, align 4
  %11 = load i64, ptr %8, align 4
  call void @_ZN7testing6ValuesIN2cv5Size_IiEES3_S3_EENS_8internal11ValueArray3IT_T0_T1_EES6_S7_S8_(ptr dead_on_unwind writable sret(%"class.testing::internal::ValueArray3.33") align 4 %5, i64 %9, i64 %10, i64 %11)
  call void @_ZN7testing7CombineINS_8internal11ValueArray3IPKcS4_S4_EENS2_IN2cv5Size_IiEES8_S8_EEEENS1_23CartesianProductHolder2IT_T0_EERKSB_RKSC_(ptr dead_on_unwind writable sret(%"class.testing::internal::CartesianProductHolder2") align 8 %3, ptr noundef nonnull align 8 dereferenceable(24) %4, ptr noundef nonnull align 4 dereferenceable(24) %5)
  call void @_ZNK7testing8internal23CartesianProductHolder2INS0_11ValueArray3IPKcS4_S4_EENS2_IN2cv5Size_IiEES8_S8_EEEcvNS0_14ParamGeneratorISt5tupleIJT_T0_EEEEINSt7__cxx1112basic_stringIcSt11char_traitsIcESaIcEEES8_EEv(ptr dead_on_unwind writable sret(%"class.testing::internal::ParamGenerator") align 8 %0, ptr noundef nonnull align 8 dereferenceable(48) %3)
  call void @llvm.lifetime.end.p0(i64 24, ptr %5) #3
  call void @llvm.lifetime.end.p0(i64 24, ptr %4) #3
  call void @llvm.lifetime.end.p0(i64 48, ptr %3) #3
  ret void
}