; Function Attrs: mustprogress uwtable
define internal void @_ZN11opencv_test12_GLOBAL__N_146gtest_DenseOpticalFlow_DIS_perf_EvalGenerator_B5cxx11Ev(ptr dead_on_unwind noalias writable sret(%"class.testing::internal::ParamGenerator") align 8 %0) #4 {
  %2 = alloca %"class.testing::internal::CartesianProductHolder2", align 8
  call void @llvm.lifetime.start.p0(i64 48, ptr nonnull %2) #28
  %.sroa.02.0.copyload = load i64, ptr @_ZN4perfL5szVGAE, align 8
  %.sroa.01.0.copyload = load i64, ptr @_ZN4perfL6sz720pE, align 8
  %.sroa.0.0.copyload = load i64, ptr @_ZN4perfL7sz1080pE, align 8
  store ptr @.str.33, ptr %2, align 8, !tbaa !34, !alias.scope !36
  %3 = getelementptr inbounds nuw i8, ptr %2, i64 8
  store ptr @.str.34, ptr %3, align 8, !tbaa !39, !alias.scope !36
  %4 = getelementptr inbounds nuw i8, ptr %2, i64 16
  store ptr @.str.35, ptr %4, align 8, !tbaa !40, !alias.scope !36
  %5 = getelementptr inbounds nuw i8, ptr %2, i64 24
  store i64 %.sroa.02.0.copyload, ptr %5, align 8, !alias.scope !36
  %6 = getelementptr inbounds nuw i8, ptr %2, i64 32
  store i64 %.sroa.01.0.copyload, ptr %6, align 8, !alias.scope !36
  %7 = getelementptr inbounds nuw i8, ptr %2, i64 40
  store i64 %.sroa.0.0.copyload, ptr %7, align 8, !alias.scope !36
  call void @_ZNK7testing8internal23CartesianProductHolder2INS0_11ValueArray3IPKcS4_S4_EENS2_IN2cv5Size_IiEES8_S8_EEEcvNS0_14ParamGeneratorISt5tupleIJT_T0_EEEEINSt7__cxx1112basic_stringIcSt11char_traitsIcESaIcEEES8_EEv(ptr dead_on_unwind writable sret(%"class.testing::internal::ParamGenerator") align 8 %0, ptr noundef nonnull align 8 dereferenceable(48) %2)
  call void @llvm.lifetime.end.p0(i64 48, ptr nonnull %2) #28
  ret void
}